; Function Attrs: mustprogress nofree norecurse nosync nounwind willreturn memory(argmem: read) uwtable
define dso_local noundef zeroext i1 @_ZNK3net10QuicConfig16ForceHolBlockingENS_11PerspectiveE(ptr nocapture noundef nonnull readonly align 8 dereferenceable(600) %this, i32 noundef %perspective) local_unnamed_addr #9 align 2 {
entry:
  %cmp = icmp eq i32 %perspective, 0
  %retval.0.in.in.in.v = select i1 %cmp, i64 596, i64 588
  %retval.0.in.in.in = getelementptr inbounds i8, ptr %this, i64 %retval.0.in.in.in.v
  %retval.0.in.in = load i8, ptr %retval.0.in.in.in, align 4
  %retval.0.in = and i8 %retval.0.in.in, 1
  %retval.0 = icmp ne i8 %retval.0.in, 0
  ret i1 %retval.0
}